target datalayout = "e-m:e-p270:32:32-p271:32:32-p272:64:64-i64:64-i128:128-f80:128-n8:16:32:64-S128"
target triple = "x86_64-pc-linux-gnu"

%struct.AVChannelLayout = type { i32, i32, %union.anon, ptr }
%union.anon = type { i64 }
%struct.AACPCEInfo = type { %struct.AVChannelLayout, [4 x i32], [3 x [8 x i32]], [4 x [8 x i32]], [16 x i8], [16 x i8] }
%struct.AACEncContext = type { ptr, %struct.AACEncOptions, %struct.PutBitContext, ptr, ptr, ptr, ptr, ptr, %struct.AACPCEInfo, [16 x ptr], i32, i32, [8 x i8], %struct.LPCContext, i32, i32, ptr, ptr, ptr, %struct.FFPsyContext, ptr, ptr, i32, i32, float, i32, float, i32, i32, %struct.AudioFrameQueue, [96 x i32], [1024 x float], i16, [256 x [128 x %struct.AACQuantizeBandCostCacheEntry]], %struct.AACEncDSPContext, %struct.anon.0 }
%struct.AACEncOptions = type { i32, i32, i32, i32, i32, i32 }
%struct.PutBitContext = type { i32, i32, ptr, ptr, ptr }
%struct.LPCContext = type { i32, i32, i32, ptr, ptr, ptr, ptr, [2 x %struct.LLSModel] }
%struct.LLSModel = type { [36 x [36 x double]], [32 x [32 x double]], [32 x double], i32, ptr, ptr, [8 x i8] }
%struct.FFPsyContext = type { ptr, ptr, ptr, ptr, i32, i32, ptr, ptr, i32, %struct.anon, ptr }
%struct.anon = type { i32, i32, i32 }
%struct.AudioFrameQueue = type { ptr, i32, i32, ptr, i32, i32 }
%struct.AACQuantizeBandCostCacheEntry = type { float, float, i32, i8, i8, i16 }
%struct.AACEncDSPContext = type { ptr, ptr }
%struct.anon.0 = type { ptr }
%struct.AVCodecContext = type { ptr, i32, i32, ptr, i32, i32, ptr, ptr, ptr, i64, i32, i32, ptr, i32, %struct.AVRational, %struct.AVRational, %struct.AVRational, i32, i32, i32, i32, i32, %struct.AVRational, i32, i32, i32, i32, i32, i32, i32, i32, i32, i32, i32, ptr, ptr, i32, float, float, float, float, float, float, float, float, float, i32, i32, i32, i32, i32, i32, i32, i32, i32, i32, i32, i32, ptr, ptr, ptr, i32, i32, i32, i32, i32, i32, i32, i32, i32, i32, %struct.AVChannelLayout, i32, i32, i32, i32, i32, i32, i32, i32, ptr, i32, i32, i32, float, float, i32, i32, i32, i32, i32, ptr, i64, i64, float, float, i32, i32, ptr, ptr, i32, i32, i32, i32, i32, ptr, ptr, ptr, ptr, i32, i32, [8 x i64], i32, i32, i32, i32, i32, i32, i32, ptr, ptr, i32, i32, i32, i32, i32, i32, i32, i32, i32, i32, ptr, ptr, i32, i32, ptr, ptr, ptr, ptr, i32, i32, i64, i32, i32, i64, ptr, i64, ptr, i32, ptr, i32 }
%struct.AVRational = type { i32, i32 }

; Function Attrs: cold nounwind optsize uwtable
define internal i32 @dsp_init(ptr noundef %0, ptr noundef %1) #2 {
  %3 = alloca i32, align 4
  %4 = alloca ptr, align 8
  %5 = alloca ptr, align 8
  %6 = alloca i32, align 4
  %7 = alloca float, align 4
  %8 = alloca i32, align 4
  store ptr %0, ptr %4, align 8, !tbaa !41
  store ptr %1, ptr %5, align 8, !tbaa !4
  call void @llvm.lifetime.start.p0(i64 4, ptr %6) #11
  store i32 0, ptr %6, align 4, !tbaa !55
  call void @llvm.lifetime.start.p0(i64 4, ptr %7) #11
  store float 3.276800e+04, ptr %7, align 4, !tbaa !112
  %9 = load ptr, ptr %4, align 8, !tbaa !41
  %10 = getelementptr inbounds nuw %struct.AVCodecContext, ptr %9, i32 0, i32 10
  %11 = load i32, ptr %10, align 8, !tbaa !138
  %12 = and i32 %11, 8388608
  %13 = call ptr @avpriv_float_dsp_alloc(i32 noundef %12)
  %14 = load ptr, ptr %5, align 8, !tbaa !4
  %15 = getelementptr inbounds nuw %struct.AACEncContext, ptr %14, i32 0, i32 7
  store ptr %13, ptr %15, align 16, !tbaa !174
  %16 = load ptr, ptr %5, align 8, !tbaa !4
  %17 = getelementptr inbounds nuw %struct.AACEncContext, ptr %16, i32 0, i32 7
  %18 = load ptr, ptr %17, align 16, !tbaa !174
  %19 = icmp ne ptr %18, null
  br i1 %19, label %21, label %20

20:                                               ; preds = %2
  store i32 -12, ptr %3, align 4
  store i32 1, ptr %8, align 4
  br label %40

21:                                               ; preds = %2
  %22 = load ptr, ptr %5, align 8, !tbaa !4
  %23 = getelementptr inbounds nuw %struct.AACEncContext, ptr %22, i32 0, i32 3
  %24 = load ptr, ptr %5, align 8, !tbaa !4
  %25 = getelementptr inbounds nuw %struct.AACEncContext, ptr %24, i32 0, i32 4
  %26 = call i32 @av_tx_init(ptr noundef %23, ptr noundef %25, i32 noundef 1, i32 noundef 0, i32 noundef 1024, ptr noundef %7, i64 noundef 0)
  store i32 %26, ptr %6, align 4, !tbaa !55
  %27 = icmp slt i32 %26, 0
  br i1 %27, label %28, label %30

28:                                               ; preds = %21
  %29 = load i32, ptr %6, align 4, !tbaa !55
  store i32 %29, ptr %3, align 4
  store i32 1, ptr %8, align 4
  br label %40

30:                                               ; preds = %21
  %31 = load ptr, ptr %5, align 8, !tbaa !4
  %32 = getelementptr inbounds nuw %struct.AACEncContext, ptr %31, i32 0, i32 5
  %33 = load ptr, ptr %5, align 8, !tbaa !4
  %34 = getelementptr inbounds nuw %struct.AACEncContext, ptr %33, i32 0, i32 6
  %35 = call i32 @av_tx_init(ptr noundef %32, ptr noundef %34, i32 noundef 1, i32 noundef 0, i32 noundef 128, ptr noundef %7, i64 noundef 0)
  store i32 %35, ptr %6, align 4, !tbaa !55
  %36 = icmp slt i32 %35, 0
  br i1 %36, label %37, label %39

37:                                               ; preds = %30
  %38 = load i32, ptr %6, align 4, !tbaa !55
  store i32 %38, ptr %3, align 4
  store i32 1, ptr %8, align 4
  br label %40

39:                                               ; preds = %30
  store i32 0, ptr %3, align 4
  store i32 1, ptr %8, align 4
  br label %40

40:                                               ; preds = %39, %37, %28, %20
  call void @llvm.lifetime.end.p0(i64 4, ptr %7) #11
  call void @llvm.lifetime.end.p0(i64 4, ptr %6) #11
  %41 = load i32, ptr %3, align 4
  ret i32 %41
}