; Function Attrs: cold nounwind optsize uwtable
define internal fastcc range(i32 -2147483648, 1) i32 @dsp_init(i32 %.64.val, ptr noundef initializes((96, 104)) %0) unnamed_addr #2 {
  %2 = alloca float, align 4
  call void @llvm.lifetime.start.p0(i64 4, ptr nonnull %2) #11
  store float 3.276800e+04, ptr %2, align 4, !tbaa !104
  %3 = and i32 %.64.val, 8388608
  %4 = tail call ptr @avpriv_float_dsp_alloc(i32 noundef %3) #11
  %5 = getelementptr inbounds nuw i8, ptr %0, i64 96
  store ptr %4, ptr %5, align 16, !tbaa !125
  %.not = icmp eq ptr %4, null
  br i1 %.not, label %15, label %6

6:                                                ; preds = %1
  %7 = getelementptr inbounds nuw i8, ptr %0, i64 64
  %8 = getelementptr inbounds nuw i8, ptr %0, i64 72
  %9 = call i32 @av_tx_init(ptr noundef nonnull %7, ptr noundef nonnull %8, i32 noundef 1, i32 noundef 0, i32 noundef 1024, ptr noundef nonnull %2, i64 noundef 0) #11
  %10 = icmp slt i32 %9, 0
  br i1 %10, label %15, label %11

11:                                               ; preds = %6
  %12 = getelementptr inbounds nuw i8, ptr %0, i64 80
  %13 = getelementptr inbounds nuw i8, ptr %0, i64 88
  %14 = call i32 @av_tx_init(ptr noundef nonnull %12, ptr noundef nonnull %13, i32 noundef 1, i32 noundef 0, i32 noundef 128, ptr noundef nonnull %2, i64 noundef 0) #11
  %. = call i32 @llvm.smin.i32(i32 %14, i32 0)
  br label %15

15:                                               ; preds = %11, %6, %1
  %.0 = phi i32 [ -12, %1 ], [ %9, %6 ], [ %., %11 ]
  call void @llvm.lifetime.end.p0(i64 4, ptr nonnull %2) #11
  ret i32 %.0
}